; Function Attrs: nofree norecurse nosync nounwind memory(read, inaccessiblemem: none) uwtable
define i32 @Gia_ManEquivCountLits(ptr noundef readonly captures(none) %0) local_unnamed_addr #4 {
  %2 = getelementptr inbounds nuw i8, ptr %0, i64 192
  %3 = load ptr, ptr %2, align 8, !tbaa !49
  %4 = icmp eq ptr %3, null
  br i1 %4, label %31, label %5

5:                                                ; preds = %1
  %6 = getelementptr inbounds nuw i8, ptr %0, i64 200
  %7 = load ptr, ptr %6, align 8, !tbaa !54
  %8 = icmp eq ptr %7, null
  br i1 %8, label %31, label %.preheader

.preheader:                                       ; preds = %5
  %9 = getelementptr i8, ptr %0, i64 24
  %.val = load i32, ptr %9, align 8, !tbaa !12
  %10 = icmp sgt i32 %.val, 1
  br i1 %10, label %.lr.ph.preheader, label %._crit_edge

.lr.ph.preheader:                                 ; preds = %.preheader
  %wide.trip.count = zext nneg i32 %.val to i64
  br label %.lr.ph

.lr.ph:                                           ; preds = %.lr.ph.preheader, %Gia_ObjIsNone.exit.thread
  %indvars.iv = phi i64 [ 1, %.lr.ph.preheader ], [ %indvars.iv.next, %Gia_ObjIsNone.exit.thread ]
  %.044 = phi i32 [ 0, %.lr.ph.preheader ], [ %.1, %Gia_ObjIsNone.exit.thread ]
  %.02242 = phi i32 [ 0, %.lr.ph.preheader ], [ %.123, %Gia_ObjIsNone.exit.thread ]
  %11 = getelementptr inbounds nuw %struct.Gia_Rpr_t_, ptr %3, i64 %indvars.iv
  %12 = load i32, ptr %11, align 4
  %13 = and i32 %12, 268435455
  %cond = icmp eq i32 %13, 268435455
  br i1 %cond, label %Gia_ObjIsHead.exit, label %Gia_ObjIsNone.exit.thread

Gia_ObjIsHead.exit:                               ; preds = %.lr.ph
  %14 = getelementptr inbounds nuw i32, ptr %7, i64 %indvars.iv
  %15 = load i32, ptr %14, align 4, !tbaa !32
  %.fr = freeze i32 %15
  %16 = icmp slt i32 %.fr, 1
  br i1 %16, label %Gia_ObjIsNone.exit, label %17

17:                                               ; preds = %Gia_ObjIsHead.exit
  %18 = add nsw i32 %.02242, 1
  br label %Gia_ObjIsNone.exit.thread

Gia_ObjIsNone.exit:                               ; preds = %Gia_ObjIsHead.exit
  %19 = add nsw i32 %.044, 1
  br label %Gia_ObjIsNone.exit.thread

Gia_ObjIsNone.exit.thread:                        ; preds = %.lr.ph, %Gia_ObjIsNone.exit, %17
  %.123 = phi i32 [ %18, %17 ], [ %.02242, %Gia_ObjIsNone.exit ], [ %.02242, %.lr.ph ]
  %.1 = phi i32 [ %.044, %17 ], [ %19, %Gia_ObjIsNone.exit ], [ %.044, %.lr.ph ]
  %indvars.iv.next = add nuw nsw i64 %indvars.iv, 1
  %exitcond.not = icmp eq i64 %indvars.iv.next, %wide.trip.count
  br i1 %exitcond.not, label %._crit_edge.loopexit, label %.lr.ph, !llvm.loop !76

._crit_edge.loopexit:                             ; preds = %Gia_ObjIsNone.exit.thread
  %20 = add i32 %.1, %.123
  br label %._crit_edge

._crit_edge:                                      ; preds = %._crit_edge.loopexit, %.preheader
  %21 = phi i32 [ 0, %.preheader ], [ %20, %._crit_edge.loopexit ]
  %22 = getelementptr i8, ptr %0, i64 72
  %.val29 = load ptr, ptr %22, align 8, !tbaa !47
  %23 = getelementptr i8, ptr %.val29, i64 4
  %.val29.val = load i32, ptr %23, align 4, !tbaa !31
  %24 = getelementptr i8, ptr %0, i64 64
  %.val30 = load ptr, ptr %24, align 8, !tbaa !44
  %25 = getelementptr i8, ptr %.val30, i64 4
  %.val30.val = load i32, ptr %25, align 4, !tbaa !31
  %26 = add i32 %.val30.val, %.val29.val
  %27 = xor i32 %26, -1
  %28 = sub i32 %.val, %21
  %29 = add i32 %28, %.val29.val
  %.neg = add i32 %29, %.val30.val
  %30 = add i32 %.neg, %27
  br label %31

31:                                               ; preds = %1, %5, %._crit_edge
  %.025 = phi i32 [ %30, %._crit_edge ], [ 0, %5 ], [ 0, %1 ]
  ret i32 %.025
}